target datalayout = "e-m:e-p270:32:32-p271:32:32-p272:64:64-i64:64-i128:128-f80:128-n8:16:32:64-S128"
target triple = "x86_64-pc-linux-gnu"

%struct._extcap_arg = type { i32, ptr, ptr, ptr, ptr, ptr, i8, i8, i8, i8, ptr, ptr, i32, ptr, ptr, ptr, ptr, ptr, ptr }

@_ZN15ExtArgTimestampC1EP11_extcap_argP7QObject = unnamed_addr alias void (ptr, ptr, ptr), ptr @_ZN15ExtArgTimestampC2EP11_extcap_argP7QObject
@_ZN14ExtArgSelectorC1EP11_extcap_argP7QObject = unnamed_addr alias void (ptr, ptr, ptr), ptr @_ZN14ExtArgSelectorC2EP11_extcap_argP7QObject
@_ZN18ExtArgEditSelectorC1EP11_extcap_argP7QObject = unnamed_addr alias void (ptr, ptr, ptr), ptr @_ZN18ExtArgEditSelectorC2EP11_extcap_argP7QObject
@_ZN11ExtArgRadioC1EP11_extcap_argP7QObject = unnamed_addr alias void (ptr, ptr, ptr), ptr @_ZN11ExtArgRadioC2EP11_extcap_argP7QObject
@_ZN10ExtArgBoolC1EP11_extcap_argP7QObject = unnamed_addr alias void (ptr, ptr, ptr), ptr @_ZN10ExtArgBoolC2EP11_extcap_argP7QObject
@_ZN10ExtArgTextC1EP11_extcap_argP7QObject = unnamed_addr alias void (ptr, ptr, ptr), ptr @_ZN10ExtArgTextC2EP11_extcap_argP7QObject
@_ZN12ExtArgNumberC1EP11_extcap_argP7QObject = unnamed_addr alias void (ptr, ptr, ptr), ptr @_ZN12ExtArgNumberC2EP11_extcap_argP7QObject
@_ZN14ExtcapArgumentC1EP11_extcap_argP7QObject = unnamed_addr alias void (ptr, ptr, ptr), ptr @_ZN14ExtcapArgumentC2EP11_extcap_argP7QObject

; Function Attrs: mustprogress null_pointer_is_valid sspstrong uwtable
define noundef ptr @_ZN14ExtcapArgument6createEP11_extcap_argP7QObject(ptr noundef %0, ptr noundef %1) #0 align 2 personality ptr @__gxx_personality_v0 {
  %3 = alloca ptr, align 8
  %4 = alloca ptr, align 8
  %5 = alloca ptr, align 8
  %6 = alloca ptr, align 8
  %7 = alloca ptr, align 8
  %8 = alloca i32, align 4
  store ptr %0, ptr %4, align 8
  store ptr %1, ptr %5, align 8
  %9 = load ptr, ptr %4, align 8
  %10 = icmp eq ptr %9, null
  br i1 %10, label %16, label %11

11:                                               ; preds = %2
  %12 = load ptr, ptr %4, align 8
  %13 = getelementptr inbounds nuw %struct._extcap_arg, ptr %12, i32 0, i32 2
  %14 = load ptr, ptr %13, align 8
  %15 = icmp eq ptr %14, null
  br i1 %15, label %16, label %17

16:                                               ; preds = %11, %2
  store ptr null, ptr %3, align 8
  br label %188

17:                                               ; preds = %11
  call void @llvm.lifetime.start.p0(i64 8, ptr %6) #23
  store ptr null, ptr %6, align 8
  %18 = load ptr, ptr %4, align 8
  %19 = getelementptr inbounds nuw %struct._extcap_arg, ptr %18, i32 0, i32 12
  %20 = load i32, ptr %19, align 8
  %21 = icmp eq i32 %20, 7
  br i1 %21, label %27, label %22

22:                                               ; preds = %17
  %23 = load ptr, ptr %4, align 8
  %24 = getelementptr inbounds nuw %struct._extcap_arg, ptr %23, i32 0, i32 12
  %25 = load i32, ptr %24, align 8
  %26 = icmp eq i32 %25, 8
  br i1 %26, label %27, label %36

27:                                               ; preds = %22, %17
  %28 = call noalias noundef ptr @_Znwm(i64 noundef 96) #25
  %29 = load ptr, ptr %4, align 8
  %30 = load ptr, ptr %5, align 8
  invoke void @_ZN10ExtArgTextC1EP11_extcap_argP7QObject(ptr noundef align 8 dereferenceable_or_null(96) %28, ptr noundef %29, ptr noundef %30)
          to label %31 unwind label %32

31:                                               ; preds = %27
  store ptr %28, ptr %6, align 8
  br label %185

32:                                               ; preds = %27
  %33 = landingpad { ptr, i32 }
          cleanup
  %34 = extractvalue { ptr, i32 } %33, 0
  store ptr %34, ptr %7, align 8
  %35 = extractvalue { ptr, i32 } %33, 1
  store i32 %35, ptr %8, align 4
  call void @_ZdlPvm(ptr noundef %28, i64 noundef 96) #26
  br label %187

36:                                               ; preds = %22
  %37 = load ptr, ptr %4, align 8
  %38 = getelementptr inbounds nuw %struct._extcap_arg, ptr %37, i32 0, i32 12
  %39 = load i32, ptr %38, align 8
  %40 = icmp eq i32 %39, 1
  br i1 %40, label %56, label %41

41:                                               ; preds = %36
  %42 = load ptr, ptr %4, align 8
  %43 = getelementptr inbounds nuw %struct._extcap_arg, ptr %42, i32 0, i32 12
  %44 = load i32, ptr %43, align 8
  %45 = icmp eq i32 %44, 3
  br i1 %45, label %56, label %46

46:                                               ; preds = %41
  %47 = load ptr, ptr %4, align 8
  %48 = getelementptr inbounds nuw %struct._extcap_arg, ptr %47, i32 0, i32 12
  %49 = load i32, ptr %48, align 8
  %50 = icmp eq i32 %49, 2
  br i1 %50, label %56, label %51

51:                                               ; preds = %46
  %52 = load ptr, ptr %4, align 8
  %53 = getelementptr inbounds nuw %struct._extcap_arg, ptr %52, i32 0, i32 12
  %54 = load i32, ptr %53, align 8
  %55 = icmp eq i32 %54, 4
  br i1 %55, label %56, label %65

56:                                               ; preds = %51, %46, %41, %36
  %57 = call noalias noundef ptr @_Znwm(i64 noundef 96) #25
  %58 = load ptr, ptr %4, align 8
  %59 = load ptr, ptr %5, align 8
  invoke void @_ZN12ExtArgNumberC1EP11_extcap_argP7QObject(ptr noundef align 8 dereferenceable_or_null(96) %57, ptr noundef %58, ptr noundef %59)
          to label %60 unwind label %61

60:                                               ; preds = %56
  store ptr %57, ptr %6, align 8
  br label %184

61:                                               ; preds = %56
  %62 = landingpad { ptr, i32 }
          cleanup
  %63 = extractvalue { ptr, i32 } %62, 0
  store ptr %63, ptr %7, align 8
  %64 = extractvalue { ptr, i32 } %62, 1
  store i32 %64, ptr %8, align 4
  call void @_ZdlPvm(ptr noundef %57, i64 noundef 96) #26
  br label %187

65:                                               ; preds = %51
  %66 = load ptr, ptr %4, align 8
  %67 = getelementptr inbounds nuw %struct._extcap_arg, ptr %66, i32 0, i32 12
  %68 = load i32, ptr %67, align 8
  %69 = icmp eq i32 %68, 5
  br i1 %69, label %75, label %70

70:                                               ; preds = %65
  %71 = load ptr, ptr %4, align 8
  %72 = getelementptr inbounds nuw %struct._extcap_arg, ptr %71, i32 0, i32 12
  %73 = load i32, ptr %72, align 8
  %74 = icmp eq i32 %73, 6
  br i1 %74, label %75, label %84

75:                                               ; preds = %70, %65
  %76 = call noalias noundef ptr @_Znwm(i64 noundef 96) #25
  %77 = load ptr, ptr %4, align 8
  %78 = load ptr, ptr %5, align 8
  invoke void @_ZN10ExtArgBoolC1EP11_extcap_argP7QObject(ptr noundef align 8 dereferenceable_or_null(96) %76, ptr noundef %77, ptr noundef %78)
          to label %79 unwind label %80

79:                                               ; preds = %75
  store ptr %76, ptr %6, align 8
  br label %183

80:                                               ; preds = %75
  %81 = landingpad { ptr, i32 }
          cleanup
  %82 = extractvalue { ptr, i32 } %81, 0
  store ptr %82, ptr %7, align 8
  %83 = extractvalue { ptr, i32 } %81, 1
  store i32 %83, ptr %8, align 4
  call void @_ZdlPvm(ptr noundef %76, i64 noundef 96) #26
  br label %187

84:                                               ; preds = %70
  %85 = load ptr, ptr %4, align 8
  %86 = getelementptr inbounds nuw %struct._extcap_arg, ptr %85, i32 0, i32 12
  %87 = load i32, ptr %86, align 8
  %88 = icmp eq i32 %87, 9
  br i1 %88, label %89, label %98

89:                                               ; preds = %84
  %90 = call noalias noundef ptr @_Znwm(i64 noundef 96) #25
  %91 = load ptr, ptr %4, align 8
  %92 = load ptr, ptr %5, align 8
  invoke void @_ZN14ExtArgSelectorC1EP11_extcap_argP7QObject(ptr noundef align 8 dereferenceable_or_null(96) %90, ptr noundef %91, ptr noundef %92)
          to label %93 unwind label %94

93:                                               ; preds = %89
  store ptr %90, ptr %6, align 8
  br label %182

94:                                               ; preds = %89
  %95 = landingpad { ptr, i32 }
          cleanup
  %96 = extractvalue { ptr, i32 } %95, 0
  store ptr %96, ptr %7, align 8
  %97 = extractvalue { ptr, i32 } %95, 1
  store i32 %97, ptr %8, align 4
  call void @_ZdlPvm(ptr noundef %90, i64 noundef 96) #26
  br label %187

98:                                               ; preds = %84
  %99 = load ptr, ptr %4, align 8
  %100 = getelementptr inbounds nuw %struct._extcap_arg, ptr %99, i32 0, i32 12
  %101 = load i32, ptr %100, align 8
  %102 = icmp eq i32 %101, 10
  br i1 %102, label %103, label %112

103:                                              ; preds = %98
  %104 = call noalias noundef ptr @_Znwm(i64 noundef 96) #25
  %105 = load ptr, ptr %4, align 8
  %106 = load ptr, ptr %5, align 8
  invoke void @_ZN18ExtArgEditSelectorC1EP11_extcap_argP7QObject(ptr noundef align 8 dereferenceable_or_null(96) %104, ptr noundef %105, ptr noundef %106)
          to label %107 unwind label %108

107:                                              ; preds = %103
  store ptr %104, ptr %6, align 8
  br label %181

108:                                              ; preds = %103
  %109 = landingpad { ptr, i32 }
          cleanup
  %110 = extractvalue { ptr, i32 } %109, 0
  store ptr %110, ptr %7, align 8
  %111 = extractvalue { ptr, i32 } %109, 1
  store i32 %111, ptr %8, align 4
  call void @_ZdlPvm(ptr noundef %104, i64 noundef 96) #26
  br label %187

112:                                              ; preds = %98
  %113 = load ptr, ptr %4, align 8
  %114 = getelementptr inbounds nuw %struct._extcap_arg, ptr %113, i32 0, i32 12
  %115 = load i32, ptr %114, align 8
  %116 = icmp eq i32 %115, 11
  br i1 %116, label %117, label %126

117:                                              ; preds = %112
  %118 = call noalias noundef ptr @_Znwm(i64 noundef 104) #25
  %119 = load ptr, ptr %4, align 8
  %120 = load ptr, ptr %5, align 8
  invoke void @_ZN11ExtArgRadioC1EP11_extcap_argP7QObject(ptr noundef align 8 dereferenceable_or_null(104) %118, ptr noundef %119, ptr noundef %120)
          to label %121 unwind label %122

121:                                              ; preds = %117
  store ptr %118, ptr %6, align 8
  br label %180

122:                                              ; preds = %117
  %123 = landingpad { ptr, i32 }
          cleanup
  %124 = extractvalue { ptr, i32 } %123, 0
  store ptr %124, ptr %7, align 8
  %125 = extractvalue { ptr, i32 } %123, 1
  store i32 %125, ptr %8, align 4
  call void @_ZdlPvm(ptr noundef %118, i64 noundef 104) #26
  br label %187

126:                                              ; preds = %112
  %127 = load ptr, ptr %4, align 8
  %128 = getelementptr inbounds nuw %struct._extcap_arg, ptr %127, i32 0, i32 12
  %129 = load i32, ptr %128, align 8
  %130 = icmp eq i32 %129, 13
  br i1 %130, label %131, label %140

131:                                              ; preds = %126
  %132 = call noalias noundef ptr @_Znwm(i64 noundef 96) #25
  %133 = load ptr, ptr %4, align 8
  %134 = load ptr, ptr %5, align 8
  invoke void @_ZN27ExtcapArgumentFileSelectionC1EP11_extcap_argP7QObject(ptr noundef align 8 dereferenceable_or_null(96) %132, ptr noundef %133, ptr noundef %134)
          to label %135 unwind label %136

135:                                              ; preds = %131
  store ptr %132, ptr %6, align 8
  br label %179

136:                                              ; preds = %131
  %137 = landingpad { ptr, i32 }
          cleanup
  %138 = extractvalue { ptr, i32 } %137, 0
  store ptr %138, ptr %7, align 8
  %139 = extractvalue { ptr, i32 } %137, 1
  store i32 %139, ptr %8, align 4
  call void @_ZdlPvm(ptr noundef %132, i64 noundef 96) #26
  br label %187

140:                                              ; preds = %126
  %141 = load ptr, ptr %4, align 8
  %142 = getelementptr inbounds nuw %struct._extcap_arg, ptr %141, i32 0, i32 12
  %143 = load i32, ptr %142, align 8
  %144 = icmp eq i32 %143, 12
  br i1 %144, label %145, label %154

145:                                              ; preds = %140
  %146 = call noalias noundef ptr @_Znwm(i64 noundef 104) #25
  %147 = load ptr, ptr %4, align 8
  %148 = load ptr, ptr %5, align 8
  invoke void @_ZN17ExtArgMultiSelectC1EP11_extcap_argP7QObject(ptr noundef align 8 dereferenceable_or_null(104) %146, ptr noundef %147, ptr noundef %148)
          to label %149 unwind label %150

149:                                              ; preds = %145
  store ptr %146, ptr %6, align 8
  br label %178

150:                                              ; preds = %145
  %151 = landingpad { ptr, i32 }
          cleanup
  %152 = extractvalue { ptr, i32 } %151, 0
  store ptr %152, ptr %7, align 8
  %153 = extractvalue { ptr, i32 } %151, 1
  store i32 %153, ptr %8, align 4
  call void @_ZdlPvm(ptr noundef %146, i64 noundef 104) #26
  br label %187

154:                                              ; preds = %140
  %155 = load ptr, ptr %4, align 8
  %156 = getelementptr inbounds nuw %struct._extcap_arg, ptr %155, i32 0, i32 12
  %157 = load i32, ptr %156, align 8
  %158 = icmp eq i32 %157, 14
  br i1 %158, label %159, label %168

159:                                              ; preds = %154
  %160 = call noalias noundef ptr @_Znwm(i64 noundef 104) #25
  %161 = load ptr, ptr %4, align 8
  %162 = load ptr, ptr %5, align 8
  invoke void @_ZN15ExtArgTimestampC1EP11_extcap_argP7QObject(ptr noundef align 8 dereferenceable_or_null(104) %160, ptr noundef %161, ptr noundef %162)
          to label %163 unwind label %164

163:                                              ; preds = %159
  store ptr %160, ptr %6, align 8
  br label %177

164:                                              ; preds = %159
  %165 = landingpad { ptr, i32 }
          cleanup
  %166 = extractvalue { ptr, i32 } %165, 0
  store ptr %166, ptr %7, align 8
  %167 = extractvalue { ptr, i32 } %165, 1
  store i32 %167, ptr %8, align 4
  call void @_ZdlPvm(ptr noundef %160, i64 noundef 104) #26
  br label %187

168:                                              ; preds = %154
  %169 = call noalias noundef ptr @_Znwm(i64 noundef 88) #25
  %170 = load ptr, ptr %4, align 8
  %171 = load ptr, ptr %5, align 8
  invoke void @_ZN14ExtcapArgumentC1EP11_extcap_argP7QObject(ptr noundef align 8 dereferenceable_or_null(88) %169, ptr noundef %170, ptr noundef %171)
          to label %172 unwind label %173

172:                                              ; preds = %168
  store ptr %169, ptr %6, align 8
  br label %177

173:                                              ; preds = %168
  %174 = landingpad { ptr, i32 }
          cleanup
  %175 = extractvalue { ptr, i32 } %174, 0
  store ptr %175, ptr %7, align 8
  %176 = extractvalue { ptr, i32 } %174, 1
  store i32 %176, ptr %8, align 4
  call void @_ZdlPvm(ptr noundef %169, i64 noundef 88) #26
  br label %187

177:                                              ; preds = %172, %163
  br label %178

178:                                              ; preds = %177, %149
  br label %179

179:                                              ; preds = %178, %135
  br label %180

180:                                              ; preds = %179, %121
  br label %181

181:                                              ; preds = %180, %107
  br label %182

182:                                              ; preds = %181, %93
  br label %183

183:                                              ; preds = %182, %79
  br label %184

184:                                              ; preds = %183, %60
  br label %185

185:                                              ; preds = %184, %31
  %186 = load ptr, ptr %6, align 8
  store ptr %186, ptr %3, align 8
  call void @llvm.lifetime.end.p0(i64 8, ptr %6) #23
  br label %188

187:                                              ; preds = %173, %164, %150, %136, %122, %108, %94, %80, %61, %32
  call void @llvm.lifetime.end.p0(i64 8, ptr %6) #23
  br label %190

188:                                              ; preds = %185, %16
  %189 = load ptr, ptr %3, align 8
  ret ptr %189

190:                                              ; preds = %187
  %191 = load ptr, ptr %7, align 8
  %192 = load i32, ptr %8, align 4
  %193 = insertvalue { ptr, i32 } poison, ptr %191, 0
  %194 = insertvalue { ptr, i32 } %193, i32 %192, 1
  resume { ptr, i32 } %194
}