; Function Attrs: mustprogress null_pointer_is_valid sspstrong uwtable
define noundef ptr @_ZN14ExtcapArgument6createEP11_extcap_argP7QObject(ptr noundef %0, ptr noundef %1) local_unnamed_addr #0 align 2 personality ptr @__gxx_personality_v0 {
  %3 = icmp eq ptr %0, null
  br i1 %3, label %52, label %4

4:                                                ; preds = %2
  %5 = getelementptr inbounds nuw i8, ptr %0, i64 16
  %6 = load ptr, ptr %5, align 8
  %7 = icmp eq ptr %6, null
  br i1 %7, label %52, label %8

8:                                                ; preds = %4
  %9 = getelementptr inbounds nuw i8, ptr %0, i64 72
  %10 = load i32, ptr %9, align 8
  switch i32 %10, label %47 [
    i32 7, label %11
    i32 8, label %11
    i32 1, label %15
    i32 3, label %15
    i32 2, label %15
    i32 4, label %15
    i32 5, label %19
    i32 6, label %19
    i32 9, label %23
    i32 10, label %27
    i32 11, label %31
    i32 13, label %35
    i32 12, label %39
    i32 14, label %43
  ]

11:                                               ; preds = %8, %8
  %12 = tail call noalias noundef dereferenceable_or_null(96) ptr @_Znwm(i64 noundef 96) #27
  invoke void @_ZN10ExtArgTextC1EP11_extcap_argP7QObject(ptr noundef align 8 dereferenceable_or_null(96) %12, ptr noundef nonnull %0, ptr noundef %1)
          to label %52 unwind label %13

13:                                               ; preds = %11
  %14 = landingpad { ptr, i32 }
          cleanup
  tail call void @_ZdlPvm(ptr noundef %12, i64 noundef 96) #28
  br label %51

15:                                               ; preds = %8, %8, %8, %8
  %16 = tail call noalias noundef dereferenceable_or_null(96) ptr @_Znwm(i64 noundef 96) #27
  invoke void @_ZN12ExtArgNumberC1EP11_extcap_argP7QObject(ptr noundef align 8 dereferenceable_or_null(96) %16, ptr noundef nonnull %0, ptr noundef %1)
          to label %52 unwind label %17

17:                                               ; preds = %15
  %18 = landingpad { ptr, i32 }
          cleanup
  tail call void @_ZdlPvm(ptr noundef %16, i64 noundef 96) #28
  br label %51

19:                                               ; preds = %8, %8
  %20 = tail call noalias noundef dereferenceable_or_null(96) ptr @_Znwm(i64 noundef 96) #27
  invoke void @_ZN10ExtArgBoolC1EP11_extcap_argP7QObject(ptr noundef align 8 dereferenceable_or_null(96) %20, ptr noundef nonnull %0, ptr noundef %1)
          to label %52 unwind label %21

21:                                               ; preds = %19
  %22 = landingpad { ptr, i32 }
          cleanup
  tail call void @_ZdlPvm(ptr noundef %20, i64 noundef 96) #28
  br label %51

23:                                               ; preds = %8
  %24 = tail call noalias noundef dereferenceable_or_null(96) ptr @_Znwm(i64 noundef 96) #27
  invoke void @_ZN14ExtArgSelectorC1EP11_extcap_argP7QObject(ptr noundef align 8 dereferenceable_or_null(96) %24, ptr noundef nonnull %0, ptr noundef %1)
          to label %52 unwind label %25

25:                                               ; preds = %23
  %26 = landingpad { ptr, i32 }
          cleanup
  tail call void @_ZdlPvm(ptr noundef %24, i64 noundef 96) #28
  br label %51

27:                                               ; preds = %8
  %28 = tail call noalias noundef dereferenceable_or_null(96) ptr @_Znwm(i64 noundef 96) #27
  invoke void @_ZN18ExtArgEditSelectorC1EP11_extcap_argP7QObject(ptr noundef align 8 dereferenceable_or_null(96) %28, ptr noundef nonnull %0, ptr noundef %1)
          to label %52 unwind label %29

29:                                               ; preds = %27
  %30 = landingpad { ptr, i32 }
          cleanup
  tail call void @_ZdlPvm(ptr noundef %28, i64 noundef 96) #28
  br label %51

31:                                               ; preds = %8
  %32 = tail call noalias noundef dereferenceable_or_null(104) ptr @_Znwm(i64 noundef 104) #27
  invoke void @_ZN11ExtArgRadioC1EP11_extcap_argP7QObject(ptr noundef align 8 dereferenceable_or_null(104) %32, ptr noundef nonnull %0, ptr noundef %1)
          to label %52 unwind label %33

33:                                               ; preds = %31
  %34 = landingpad { ptr, i32 }
          cleanup
  tail call void @_ZdlPvm(ptr noundef %32, i64 noundef 104) #28
  br label %51

35:                                               ; preds = %8
  %36 = tail call noalias noundef dereferenceable_or_null(96) ptr @_Znwm(i64 noundef 96) #27
  invoke void @_ZN27ExtcapArgumentFileSelectionC1EP11_extcap_argP7QObject(ptr noundef align 8 dereferenceable_or_null(96) %36, ptr noundef nonnull %0, ptr noundef %1)
          to label %52 unwind label %37

37:                                               ; preds = %35
  %38 = landingpad { ptr, i32 }
          cleanup
  tail call void @_ZdlPvm(ptr noundef %36, i64 noundef 96) #28
  br label %51

39:                                               ; preds = %8
  %40 = tail call noalias noundef dereferenceable_or_null(104) ptr @_Znwm(i64 noundef 104) #27
  invoke void @_ZN17ExtArgMultiSelectC1EP11_extcap_argP7QObject(ptr noundef align 8 dereferenceable_or_null(104) %40, ptr noundef nonnull %0, ptr noundef %1)
          to label %52 unwind label %41

41:                                               ; preds = %39
  %42 = landingpad { ptr, i32 }
          cleanup
  tail call void @_ZdlPvm(ptr noundef %40, i64 noundef 104) #28
  br label %51

43:                                               ; preds = %8
  %44 = tail call noalias noundef dereferenceable_or_null(104) ptr @_Znwm(i64 noundef 104) #27
  invoke void @_ZN15ExtArgTimestampC1EP11_extcap_argP7QObject(ptr noundef align 8 dereferenceable_or_null(104) %44, ptr noundef nonnull %0, ptr noundef %1)
          to label %52 unwind label %45

45:                                               ; preds = %43
  %46 = landingpad { ptr, i32 }
          cleanup
  tail call void @_ZdlPvm(ptr noundef %44, i64 noundef 104) #28
  br label %51

47:                                               ; preds = %8
  %48 = tail call noalias noundef dereferenceable_or_null(88) ptr @_Znwm(i64 noundef 88) #27
  invoke void @_ZN14ExtcapArgumentC1EP11_extcap_argP7QObject(ptr noundef align 8 dereferenceable_or_null(88) %48, ptr noundef nonnull %0, ptr noundef %1)
          to label %52 unwind label %49

49:                                               ; preds = %47
  %50 = landingpad { ptr, i32 }
          cleanup
  tail call void @_ZdlPvm(ptr noundef %48, i64 noundef 88) #28
  br label %51

51:                                               ; preds = %49, %45, %41, %37, %33, %29, %25, %21, %17, %13
  %.pn = phi { ptr, i32 } [ %14, %13 ], [ %18, %17 ], [ %22, %21 ], [ %26, %25 ], [ %30, %29 ], [ %34, %33 ], [ %38, %37 ], [ %42, %41 ], [ %46, %45 ], [ %50, %49 ]
  resume { ptr, i32 } %.pn

52:                                               ; preds = %11, %15, %19, %23, %27, %31, %35, %39, %43, %47, %2, %4
  %.041 = phi ptr [ null, %4 ], [ null, %2 ], [ %12, %11 ], [ %16, %15 ], [ %20, %19 ], [ %24, %23 ], [ %28, %27 ], [ %32, %31 ], [ %36, %35 ], [ %40, %39 ], [ %44, %43 ], [ %48, %47 ]
  ret ptr %.041
}